target datalayout = "e-m:e-p270:32:32-p271:32:32-p272:64:64-i64:64-i128:128-f80:128-n8:16:32:64-S128"
target triple = "x86_64-pc-linux-gnu"

%"struct.Luau::Location" = type { %"struct.Luau::Position", %"struct.Luau::Position" }
%"struct.Luau::Position" = type { i32, i32 }
%"class.Luau::AstNode" = type <{ ptr, i32, %"struct.Luau::Location", [4 x i8] }>
%"class.Luau::AstExprGroup" = type { %"class.Luau::AstExpr.base", ptr }
%"class.Luau::AstExpr.base" = type { %"class.Luau::AstNode.base" }
%"class.Luau::AstNode.base" = type <{ ptr, i32, %"struct.Luau::Location" }>
%"class.Luau::AstExprTypeAssertion" = type { %"class.Luau::AstExpr.base", ptr, ptr }

@_ZN4Luau7AstRttiINS_12AstExprGroupEE5valueE = linkonce_odr dso_local global i32 0, comdat, align 4
@_ZN4Luau7AstRttiINS_18AstExprConstantNilEE5valueE = linkonce_odr dso_local global i32 0, comdat, align 4
@_ZN4Luau7AstRttiINS_19AstExprConstantBoolEE5valueE = linkonce_odr dso_local global i32 0, comdat, align 4
@_ZN4Luau7AstRttiINS_21AstExprConstantNumberEE5valueE = linkonce_odr dso_local global i32 0, comdat, align 4
@_ZN4Luau7AstRttiINS_21AstExprConstantStringEE5valueE = linkonce_odr dso_local global i32 0, comdat, align 4
@_ZN4Luau7AstRttiINS_15AstExprFunctionEE5valueE = linkonce_odr dso_local global i32 0, comdat, align 4
@_ZN4Luau7AstRttiINS_12AstExprTableEE5valueE = linkonce_odr dso_local global i32 0, comdat, align 4
@_ZN4Luau7AstRttiINS_20AstExprTypeAssertionEE5valueE = linkonce_odr dso_local global i32 0, comdat, align 4

; Function Attrs: mustprogress nounwind uwtable
define linkonce_odr dso_local noundef i32 @_ZN4Luau12AstExprTable10ClassIndexEv() #2 comdat align 2 {
  %1 = load i32, ptr @_ZN4Luau7AstRttiINS_12AstExprTableEE5valueE, align 4, !tbaa !4
  ret i32 %1
}

; Function Attrs: mustprogress nounwind uwtable
define linkonce_odr dso_local noundef i32 @_ZN4Luau15AstExprFunction10ClassIndexEv() #2 comdat align 2 {
  %1 = load i32, ptr @_ZN4Luau7AstRttiINS_15AstExprFunctionEE5valueE, align 4, !tbaa !4
  ret i32 %1
}

; Function Attrs: mustprogress nounwind uwtable
define linkonce_odr dso_local noundef i32 @_ZN4Luau21AstExprConstantString10ClassIndexEv() #2 comdat align 2 {
  %1 = load i32, ptr @_ZN4Luau7AstRttiINS_21AstExprConstantStringEE5valueE, align 4, !tbaa !4
  ret i32 %1
}

; Function Attrs: mustprogress nounwind uwtable
define linkonce_odr dso_local noundef i32 @_ZN4Luau21AstExprConstantNumber10ClassIndexEv() #2 comdat align 2 {
  %1 = load i32, ptr @_ZN4Luau7AstRttiINS_21AstExprConstantNumberEE5valueE, align 4, !tbaa !4
  ret i32 %1
}

; Function Attrs: mustprogress nounwind uwtable
define linkonce_odr dso_local noundef i32 @_ZN4Luau19AstExprConstantBool10ClassIndexEv() #2 comdat align 2 {
  %1 = load i32, ptr @_ZN4Luau7AstRttiINS_19AstExprConstantBoolEE5valueE, align 4, !tbaa !4
  ret i32 %1
}

; Function Attrs: mustprogress nounwind uwtable
define linkonce_odr dso_local noundef i32 @_ZN4Luau18AstExprConstantNil10ClassIndexEv() #2 comdat align 2 {
  %1 = load i32, ptr @_ZN4Luau7AstRttiINS_18AstExprConstantNilEE5valueE, align 4, !tbaa !4
  ret i32 %1
}

; Function Attrs: mustprogress nounwind uwtable
define linkonce_odr dso_local noundef i32 @_ZN4Luau20AstExprTypeAssertion10ClassIndexEv() #2 comdat align 2 {
  %1 = load i32, ptr @_ZN4Luau7AstRttiINS_20AstExprTypeAssertionEE5valueE, align 4, !tbaa !4
  ret i32 %1
}

; Function Attrs: mustprogress nounwind uwtable
define linkonce_odr dso_local noundef i32 @_ZN4Luau12AstExprGroup10ClassIndexEv() #2 comdat align 2 {
  %1 = load i32, ptr @_ZN4Luau7AstRttiINS_12AstExprGroupEE5valueE, align 4, !tbaa !4
  ret i32 %1
}

; Function Attrs: mustprogress uwtable
define linkonce_odr dso_local noundef zeroext i1 @_ZNK4Luau7AstNode2isINS_12AstExprTableEEEbv(ptr noundef nonnull align 8 dereferenceable(28) %0) #6 comdat align 2 {
  %2 = alloca ptr, align 8
  store ptr %0, ptr %2, align 8, !tbaa !312
  %3 = load ptr, ptr %2, align 8
  %4 = getelementptr inbounds nuw %"class.Luau::AstNode", ptr %3, i32 0, i32 1
  %5 = load i32, ptr %4, align 8, !tbaa !314
  %6 = call noundef i32 @_ZN4Luau12AstExprTable10ClassIndexEv()
  %7 = icmp eq i32 %5, %6
  ret i1 %7
}

; Function Attrs: mustprogress uwtable
define linkonce_odr dso_local noundef zeroext i1 @_ZNK4Luau7AstNode2isINS_15AstExprFunctionEEEbv(ptr noundef nonnull align 8 dereferenceable(28) %0) #6 comdat align 2 {
  %2 = alloca ptr, align 8
  store ptr %0, ptr %2, align 8, !tbaa !312
  %3 = load ptr, ptr %2, align 8
  %4 = getelementptr inbounds nuw %"class.Luau::AstNode", ptr %3, i32 0, i32 1
  %5 = load i32, ptr %4, align 8, !tbaa !314
  %6 = call noundef i32 @_ZN4Luau15AstExprFunction10ClassIndexEv()
  %7 = icmp eq i32 %5, %6
  ret i1 %7
}

; Function Attrs: mustprogress uwtable
define linkonce_odr dso_local noundef zeroext i1 @_ZNK4Luau7AstNode2isINS_21AstExprConstantStringEEEbv(ptr noundef nonnull align 8 dereferenceable(28) %0) #6 comdat align 2 {
  %2 = alloca ptr, align 8
  store ptr %0, ptr %2, align 8, !tbaa !312
  %3 = load ptr, ptr %2, align 8
  %4 = getelementptr inbounds nuw %"class.Luau::AstNode", ptr %3, i32 0, i32 1
  %5 = load i32, ptr %4, align 8, !tbaa !314
  %6 = call noundef i32 @_ZN4Luau21AstExprConstantString10ClassIndexEv()
  %7 = icmp eq i32 %5, %6
  ret i1 %7
}

; Function Attrs: mustprogress uwtable
define linkonce_odr dso_local noundef zeroext i1 @_ZNK4Luau7AstNode2isINS_21AstExprConstantNumberEEEbv(ptr noundef nonnull align 8 dereferenceable(28) %0) #6 comdat align 2 {
  %2 = alloca ptr, align 8
  store ptr %0, ptr %2, align 8, !tbaa !312
  %3 = load ptr, ptr %2, align 8
  %4 = getelementptr inbounds nuw %"class.Luau::AstNode", ptr %3, i32 0, i32 1
  %5 = load i32, ptr %4, align 8, !tbaa !314
  %6 = call noundef i32 @_ZN4Luau21AstExprConstantNumber10ClassIndexEv()
  %7 = icmp eq i32 %5, %6
  ret i1 %7
}

; Function Attrs: mustprogress uwtable
define linkonce_odr dso_local noundef zeroext i1 @_ZNK4Luau7AstNode2isINS_19AstExprConstantBoolEEEbv(ptr noundef nonnull align 8 dereferenceable(28) %0) #6 comdat align 2 {
  %2 = alloca ptr, align 8
  store ptr %0, ptr %2, align 8, !tbaa !312
  %3 = load ptr, ptr %2, align 8
  %4 = getelementptr inbounds nuw %"class.Luau::AstNode", ptr %3, i32 0, i32 1
  %5 = load i32, ptr %4, align 8, !tbaa !314
  %6 = call noundef i32 @_ZN4Luau19AstExprConstantBool10ClassIndexEv()
  %7 = icmp eq i32 %5, %6
  ret i1 %7
}

; Function Attrs: mustprogress uwtable
define linkonce_odr dso_local noundef zeroext i1 @_ZNK4Luau7AstNode2isINS_18AstExprConstantNilEEEbv(ptr noundef nonnull align 8 dereferenceable(28) %0) #6 comdat align 2 {
  %2 = alloca ptr, align 8
  store ptr %0, ptr %2, align 8, !tbaa !312
  %3 = load ptr, ptr %2, align 8
  %4 = getelementptr inbounds nuw %"class.Luau::AstNode", ptr %3, i32 0, i32 1
  %5 = load i32, ptr %4, align 8, !tbaa !314
  %6 = call noundef i32 @_ZN4Luau18AstExprConstantNil10ClassIndexEv()
  %7 = icmp eq i32 %5, %6
  ret i1 %7
}

; Function Attrs: mustprogress uwtable
define linkonce_odr dso_local noundef ptr @_ZN4Luau7AstNode2asINS_20AstExprTypeAssertionEEEPT_v(ptr noundef nonnull align 8 dereferenceable(28) %0) #6 comdat align 2 {
  %2 = alloca ptr, align 8
  store ptr %0, ptr %2, align 8, !tbaa !312
  %3 = load ptr, ptr %2, align 8
  %4 = getelementptr inbounds nuw %"class.Luau::AstNode", ptr %3, i32 0, i32 1
  %5 = load i32, ptr %4, align 8, !tbaa !314
  %6 = call noundef i32 @_ZN4Luau20AstExprTypeAssertion10ClassIndexEv()
  %7 = icmp eq i32 %5, %6
  br i1 %7, label %8, label %9

8:                                                ; preds = %1
  br label %10

9:                                                ; preds = %1
  br label %10

10:                                               ; preds = %9, %8
  %11 = phi ptr [ %3, %8 ], [ null, %9 ]
  ret ptr %11
}

; Function Attrs: mustprogress uwtable
define linkonce_odr dso_local noundef ptr @_ZN4Luau7AstNode2asINS_12AstExprGroupEEEPT_v(ptr noundef nonnull align 8 dereferenceable(28) %0) #6 comdat align 2 {
  %2 = alloca ptr, align 8
  store ptr %0, ptr %2, align 8, !tbaa !312
  %3 = load ptr, ptr %2, align 8
  %4 = getelementptr inbounds nuw %"class.Luau::AstNode", ptr %3, i32 0, i32 1
  %5 = load i32, ptr %4, align 8, !tbaa !314
  %6 = call noundef i32 @_ZN4Luau12AstExprGroup10ClassIndexEv()
  %7 = icmp eq i32 %5, %6
  br i1 %7, label %8, label %9

8:                                                ; preds = %1
  br label %10

9:                                                ; preds = %1
  br label %10

10:                                               ; preds = %9, %8
  %11 = phi ptr [ %3, %8 ], [ null, %9 ]
  ret ptr %11
}

; Function Attrs: mustprogress uwtable
define dso_local noundef zeroext i1 @_ZN4Luau16OverloadResolver9isLiteralEPNS_7AstExprE(ptr noundef %0) #6 align 2 {
  %2 = alloca i1, align 1
  %3 = alloca ptr, align 8
  %4 = alloca ptr, align 8
  %5 = alloca i32, align 4
  %6 = alloca ptr, align 8
  store ptr %0, ptr %3, align 8, !tbaa !189
  call void @llvm.lifetime.start.p0(i64 8, ptr %4) #4
  %7 = load ptr, ptr %3, align 8, !tbaa !189
  %8 = call noundef ptr @_ZN4Luau7AstNode2asINS_12AstExprGroupEEEPT_v(ptr noundef nonnull align 8 dereferenceable(28) %7)
  store ptr %8, ptr %4, align 8, !tbaa !301
  %9 = load ptr, ptr %4, align 8, !tbaa !301
  %10 = icmp ne ptr %9, null
  br i1 %10, label %11, label %16

11:                                               ; preds = %1
  %12 = load ptr, ptr %4, align 8, !tbaa !301
  %13 = getelementptr inbounds nuw %"class.Luau::AstExprGroup", ptr %12, i32 0, i32 1
  %14 = load ptr, ptr %13, align 8, !tbaa !303
  %15 = call noundef zeroext i1 @_ZN4Luau16OverloadResolver9isLiteralEPNS_7AstExprE(ptr noundef %14)
  store i1 %15, ptr %2, align 1
  store i32 1, ptr %5, align 4
  br label %31

16:                                               ; preds = %1
  call void @llvm.lifetime.start.p0(i64 8, ptr %6) #4
  %17 = load ptr, ptr %3, align 8, !tbaa !189
  %18 = call noundef ptr @_ZN4Luau7AstNode2asINS_20AstExprTypeAssertionEEEPT_v(ptr noundef nonnull align 8 dereferenceable(28) %17)
  store ptr %18, ptr %6, align 8, !tbaa !307
  %19 = load ptr, ptr %6, align 8, !tbaa !307
  %20 = icmp ne ptr %19, null
  br i1 %20, label %21, label %26

21:                                               ; preds = %16
  %22 = load ptr, ptr %6, align 8, !tbaa !307
  %23 = getelementptr inbounds nuw %"class.Luau::AstExprTypeAssertion", ptr %22, i32 0, i32 1
  %24 = load ptr, ptr %23, align 8, !tbaa !309
  %25 = call noundef zeroext i1 @_ZN4Luau16OverloadResolver9isLiteralEPNS_7AstExprE(ptr noundef %24)
  store i1 %25, ptr %2, align 1
  store i32 1, ptr %5, align 4
  br label %27

26:                                               ; preds = %16
  store i32 0, ptr %5, align 4
  br label %27

27:                                               ; preds = %26, %21
  call void @llvm.lifetime.end.p0(i64 8, ptr %6) #4
  %28 = load i32, ptr %5, align 4
  switch i32 %28, label %31 [
    i32 0, label %29
  ]

29:                                               ; preds = %27
  br label %30

30:                                               ; preds = %29
  store i32 0, ptr %5, align 4
  br label %31

31:                                               ; preds = %30, %27, %11
  call void @llvm.lifetime.end.p0(i64 8, ptr %4) #4
  %32 = load i32, ptr %5, align 4
  switch i32 %32, label %55 [
    i32 0, label %33
    i32 1, label %53
  ]

33:                                               ; preds = %31
  %34 = load ptr, ptr %3, align 8, !tbaa !189
  %35 = call noundef zeroext i1 @_ZNK4Luau7AstNode2isINS_18AstExprConstantNilEEEbv(ptr noundef nonnull align 8 dereferenceable(28) %34)
  br i1 %35, label %51, label %36

36:                                               ; preds = %33
  %37 = load ptr, ptr %3, align 8, !tbaa !189
  %38 = call noundef zeroext i1 @_ZNK4Luau7AstNode2isINS_19AstExprConstantBoolEEEbv(ptr noundef nonnull align 8 dereferenceable(28) %37)
  br i1 %38, label %51, label %39

39:                                               ; preds = %36
  %40 = load ptr, ptr %3, align 8, !tbaa !189
  %41 = call noundef zeroext i1 @_ZNK4Luau7AstNode2isINS_21AstExprConstantNumberEEEbv(ptr noundef nonnull align 8 dereferenceable(28) %40)
  br i1 %41, label %51, label %42

42:                                               ; preds = %39
  %43 = load ptr, ptr %3, align 8, !tbaa !189
  %44 = call noundef zeroext i1 @_ZNK4Luau7AstNode2isINS_21AstExprConstantStringEEEbv(ptr noundef nonnull align 8 dereferenceable(28) %43)
  br i1 %44, label %51, label %45

45:                                               ; preds = %42
  %46 = load ptr, ptr %3, align 8, !tbaa !189
  %47 = call noundef zeroext i1 @_ZNK4Luau7AstNode2isINS_15AstExprFunctionEEEbv(ptr noundef nonnull align 8 dereferenceable(28) %46)
  br i1 %47, label %51, label %48

48:                                               ; preds = %45
  %49 = load ptr, ptr %3, align 8, !tbaa !189
  %50 = call noundef zeroext i1 @_ZNK4Luau7AstNode2isINS_12AstExprTableEEEbv(ptr noundef nonnull align 8 dereferenceable(28) %49)
  br label %51

51:                                               ; preds = %48, %45, %42, %39, %36, %33
  %52 = phi i1 [ true, %45 ], [ true, %42 ], [ true, %39 ], [ true, %36 ], [ true, %33 ], [ %50, %48 ]
  store i1 %52, ptr %2, align 1
  br label %53

53:                                               ; preds = %51, %31
  %54 = load i1, ptr %2, align 1
  ret i1 %54

55:                                               ; preds = %31
  unreachable
}